; Function Attrs: nounwind uwtable
define i32 @BIO_nwrite(ptr noundef %0, ptr noundef %1, i32 noundef %2) local_unnamed_addr #1 {
  %4 = getelementptr inbounds nuw i8, ptr %0, i64 40
  %5 = load i32, ptr %4, align 8, !tbaa !8
  %.not = icmp eq i32 %5, 0
  br i1 %.not, label %6, label %7

6:                                                ; preds = %3
  tail call void @ERR_new() #8
  tail call void @ERR_set_debug(ptr noundef nonnull @.str, i32 noundef 794, ptr noundef nonnull @__func__.BIO_nwrite) #8
  tail call void (i32, i32, ptr, ...) @ERR_set_error(i32 noundef 32, i32 noundef 120, ptr noundef null) #8
  br label %17

7:                                                ; preds = %3
  %8 = sext i32 %2 to i64
  %9 = tail call i64 @BIO_ctrl(ptr noundef nonnull %0, i32 noundef 146, i64 noundef %8, ptr noundef %1) #8
  %10 = trunc i64 %9 to i32
  %11 = icmp sgt i32 %10, 0
  br i1 %11, label %12, label %17

12:                                               ; preds = %7
  %13 = and i64 %9, 2147483647
  %14 = getelementptr inbounds nuw i8, ptr %0, i64 104
  %15 = load i64, ptr %14, align 8, !tbaa !19
  %16 = add i64 %15, %13
  store i64 %16, ptr %14, align 8, !tbaa !19
  br label %17

17:                                               ; preds = %7, %12, %6
  %.0 = phi i32 [ -2, %6 ], [ %10, %12 ], [ %10, %7 ]
  ret i32 %.0
}